; Function Attrs: mustprogress nofree norecurse nosync nounwind willreturn memory(argmem: read) uwtable
define noundef zeroext i1 @_ZNK2cv10softdoubleltERKS0_(ptr nocapture noundef nonnull readonly align 8 dereferenceable(8) %0, ptr nocapture noundef nonnull readonly align 8 dereferenceable(8) %1) local_unnamed_addr #4 align 2 {
  %3 = load i64, ptr %0, align 8
  %4 = load i64, ptr %1, align 8
  %5 = and i64 %3, 9218868437227405312
  %6 = icmp ne i64 %5, 9218868437227405312
  %7 = and i64 %3, 4503599627370495
  %.not.i = icmp eq i64 %7, 0
  %or.cond.i = or i1 %6, %.not.i
  br i1 %or.cond.i, label %8, label %_ZN2cvL6f64_ltENS_10softdoubleES0_.exit

8:                                                ; preds = %2
  %9 = and i64 %4, 9218868437227405312
  %10 = icmp ne i64 %9, 9218868437227405312
  %11 = and i64 %4, 4503599627370495
  %.not19.i = icmp eq i64 %11, 0
  %or.cond23.i = or i1 %10, %.not19.i
  br i1 %or.cond23.i, label %12, label %_ZN2cvL6f64_ltENS_10softdoubleES0_.exit

12:                                               ; preds = %8
  %.not21.unshifted.i = xor i64 %4, %3
  %.not21.i = icmp sgt i64 %.not21.unshifted.i, -1
  br i1 %.not21.i, label %19, label %13

13:                                               ; preds = %12
  %14 = icmp slt i64 %3, 0
  br i1 %14, label %15, label %_ZN2cvL6f64_ltENS_10softdoubleES0_.exit

15:                                               ; preds = %13
  %16 = or i64 %4, %3
  %17 = and i64 %16, 9223372036854775807
  %18 = icmp ne i64 %17, 0
  br label %_ZN2cvL6f64_ltENS_10softdoubleES0_.exit

19:                                               ; preds = %12
  %.not22.i = icmp eq i64 %3, %4
  br i1 %.not22.i, label %_ZN2cvL6f64_ltENS_10softdoubleES0_.exit, label %20

20:                                               ; preds = %19
  %21 = icmp ult i64 %3, %4
  %22 = icmp slt i64 %3, 0
  %23 = xor i1 %22, %21
  br label %_ZN2cvL6f64_ltENS_10softdoubleES0_.exit

_ZN2cvL6f64_ltENS_10softdoubleES0_.exit:          ; preds = %2, %8, %13, %15, %19, %20
  %.0.i = phi i1 [ false, %13 ], [ %18, %15 ], [ false, %19 ], [ %23, %20 ], [ false, %8 ], [ false, %2 ]
  ret i1 %.0.i
}